; Function Attrs: mustprogress nounwind uwtable
define hidden void @_ZN16G1FreeRegionList21add_list_common_startEPS_(ptr nocapture noundef nonnull readonly align 8 dereferenceable(72) %0, ptr nocapture noundef readonly %1) local_unnamed_addr #0 align 2 {
  %3 = getelementptr inbounds i8, ptr %0, i64 8
  %4 = load ptr, ptr %3, align 8
  %.not.i = icmp eq ptr %4, null
  br i1 %.not.i, label %_ZN19G1HeapRegionSetBase15check_mt_safetyEv.exit, label %5

5:                                                ; preds = %2
  %6 = load ptr, ptr %4, align 8
  %7 = load ptr, ptr %6, align 8
  tail call void %7(ptr noundef nonnull align 8 dereferenceable(8) %4) #12
  br label %_ZN19G1HeapRegionSetBase15check_mt_safetyEv.exit

_ZN19G1HeapRegionSetBase15check_mt_safetyEv.exit: ; preds = %2, %5
  %8 = getelementptr inbounds i8, ptr %1, i64 8
  %9 = load ptr, ptr %8, align 8
  %.not.i8 = icmp eq ptr %9, null
  br i1 %.not.i8, label %_ZN19G1HeapRegionSetBase15check_mt_safetyEv.exit9, label %10

10:                                               ; preds = %_ZN19G1HeapRegionSetBase15check_mt_safetyEv.exit
  %11 = load ptr, ptr %9, align 8
  %12 = load ptr, ptr %11, align 8
  tail call void %12(ptr noundef nonnull align 8 dereferenceable(8) %9) #12
  br label %_ZN19G1HeapRegionSetBase15check_mt_safetyEv.exit9

_ZN19G1HeapRegionSetBase15check_mt_safetyEv.exit9: ; preds = %_ZN19G1HeapRegionSetBase15check_mt_safetyEv.exit, %10
  %13 = getelementptr inbounds i8, ptr %1, i64 16
  %14 = load i32, ptr %13, align 8
  %15 = icmp eq i32 %14, 0
  br i1 %15, label %_ZN16G1FreeRegionList8NodeInfo3addEPS0_.exit, label %16

16:                                               ; preds = %_ZN19G1HeapRegionSetBase15check_mt_safetyEv.exit9
  %17 = getelementptr inbounds i8, ptr %0, i64 64
  %18 = load ptr, ptr %17, align 8
  %.not = icmp eq ptr %18, null
  br i1 %.not, label %_ZN16G1FreeRegionList8NodeInfo3addEPS0_.exit, label %19

19:                                               ; preds = %16
  %20 = getelementptr inbounds i8, ptr %1, i64 64
  %21 = load ptr, ptr %20, align 8
  %.not7 = icmp eq ptr %21, null
  br i1 %.not7, label %_ZN16G1FreeRegionList8NodeInfo3addEPS0_.exit, label %22

22:                                               ; preds = %19
  %23 = getelementptr inbounds i8, ptr %18, i64 16
  %24 = load i32, ptr %23, align 8
  %.not.i10 = icmp eq i32 %24, 0
  br i1 %.not.i10, label %_ZN16G1FreeRegionList8NodeInfo3addEPS0_.exit, label %.lr.ph.i

.lr.ph.i:                                         ; preds = %22
  %25 = getelementptr inbounds i8, ptr %21, i64 8
  %26 = getelementptr inbounds i8, ptr %18, i64 8
  br label %27

27:                                               ; preds = %27, %.lr.ph.i
  %indvars.iv.i = phi i64 [ 0, %.lr.ph.i ], [ %indvars.iv.next.i, %27 ]
  %28 = load ptr, ptr %25, align 8
  %29 = getelementptr inbounds i32, ptr %28, i64 %indvars.iv.i
  %30 = load i32, ptr %29, align 4
  %31 = load ptr, ptr %26, align 8
  %32 = getelementptr inbounds i32, ptr %31, i64 %indvars.iv.i
  %33 = load i32, ptr %32, align 4
  %34 = add i32 %33, %30
  store i32 %34, ptr %32, align 4
  %indvars.iv.next.i = add nuw nsw i64 %indvars.iv.i, 1
  %35 = load i32, ptr %23, align 8
  %36 = zext i32 %35 to i64
  %37 = icmp ult i64 %indvars.iv.next.i, %36
  br i1 %37, label %27, label %_ZN16G1FreeRegionList8NodeInfo3addEPS0_.exit, !llvm.loop !8

_ZN16G1FreeRegionList8NodeInfo3addEPS0_.exit:     ; preds = %27, %22, %_ZN19G1HeapRegionSetBase15check_mt_safetyEv.exit9, %19, %16
  ret void
}